target datalayout = "e-m:e-p270:32:32-p271:32:32-p272:64:64-i64:64-i128:128-f80:128-n8:16:32:64-S128"
target triple = "x86_64-unknown-linux-gnu"

%"struct.icu_75::FormattedStringBuilder::Field" = type { i8 }
%"class.icu_75::MaybeStackArray" = type <{ ptr, i32, i8, [40 x i8], [3 x i8] }>
%"class.icu_75::number::impl::MutablePatternModifier" = type { %"class.icu_75::number::impl::MicroPropsGenerator", %"class.icu_75::number::impl::Modifier", %"class.icu_75::number::impl::SymbolProvider", i8, ptr, %"struct.icu_75::FormattedStringBuilder::Field", i32, i8, i8, ptr, i32, %"class.icu_75::number::impl::CurrencySymbols", ptr, i32, i32, ptr, %"class.icu_75::UnicodeString" }
%"class.icu_75::number::impl::MicroPropsGenerator" = type { ptr }
%"class.icu_75::number::impl::Modifier" = type { ptr }
%"class.icu_75::number::impl::SymbolProvider" = type { ptr }
%"class.icu_75::number::impl::CurrencySymbols" = type { [8 x i8], %"class.icu_75::CurrencyUnit", %"class.icu_75::CharString", %"class.icu_75::UnicodeString", %"class.icu_75::UnicodeString" }
%"class.icu_75::CurrencyUnit" = type { %"class.icu_75::MeasureUnit.base", [4 x i16], [4 x i8] }
%"class.icu_75::MeasureUnit.base" = type <{ %"class.icu_75::UObject", ptr, i16, i8 }>
%"class.icu_75::UObject" = type { ptr }
%"class.icu_75::CharString" = type { %"class.icu_75::MaybeStackArray", i32, [4 x i8] }
%"class.icu_75::UnicodeString" = type { %"class.icu_75::Replaceable", %"union.icu_75::UnicodeString::StackBufferOrFields" }
%"class.icu_75::Replaceable" = type { %"class.icu_75::UObject" }
%"union.icu_75::UnicodeString::StackBufferOrFields" = type { %struct.anon.0, [32 x i8] }
%struct.anon.0 = type { i16, i32, i32, ptr }
%"struct.icu_75::number::impl::Modifier::Parameters" = type { ptr, i32, i32 }
%"struct.icu_75::number::impl::MicroProps" = type <{ %"class.icu_75::number::impl::MicroPropsGenerator", %"struct.icu_75::number::impl::SimpleMicroProps", %"class.icu_75::number::impl::RoundingImpl", %"class.icu_75::number::impl::Padder", %"class.icu_75::number::IntegerWidth", i32, [9 x i8], [3 x i8], ptr, ptr, ptr, ptr, %struct.anon.9, %"class.icu_75::MeasureUnit", %"class.icu_75::number::impl::IntMeasures", i32, i32, i8, [7 x i8] }>
%"struct.icu_75::number::impl::SimpleMicroProps" = type { [4 x i8], %"class.icu_75::number::impl::Grouper", i8, i32, %"class.icu_75::UnicodeString", ptr }
%"class.icu_75::number::impl::Grouper" = type { i16, i16, i16, i32 }
%"class.icu_75::number::impl::RoundingImpl" = type <{ %"class.icu_75::number::Precision", i32, i8, [3 x i8] }>
%"class.icu_75::number::Precision" = type <{ i32, [4 x i8], %"union.icu_75::number::Precision::PrecisionUnion", i32, [4 x i8] }>
%"union.icu_75::number::Precision::PrecisionUnion" = type { %"struct.icu_75::number::Precision::PrecisionUnion::IncrementSettings" }
%"struct.icu_75::number::Precision::PrecisionUnion::IncrementSettings" = type { i64, i16, i16 }
%"class.icu_75::number::impl::Padder" = type { i32, %union.anon.5 }
%union.anon.5 = type { %struct.anon.6 }
%struct.anon.6 = type { i32, i32 }
%"class.icu_75::number::IntegerWidth" = type <{ %union.anon.7, i8, [3 x i8] }>
%union.anon.7 = type { i32, [4 x i8] }
%struct.anon.9 = type { %"class.icu_75::number::impl::ScientificModifier", %"class.icu_75::number::impl::EmptyModifier", %"class.icu_75::number::impl::EmptyModifier", %"class.icu_75::number::impl::MultiplierFormatHandler", %"class.icu_75::number::impl::SimpleModifier" }
%"class.icu_75::number::impl::ScientificModifier" = type { %"class.icu_75::number::impl::Modifier", i32, ptr }
%"class.icu_75::number::impl::EmptyModifier" = type <{ %"class.icu_75::number::impl::Modifier", i8, [7 x i8] }>
%"class.icu_75::number::impl::MultiplierFormatHandler" = type { %"class.icu_75::number::impl::MicroPropsGenerator", %"class.icu_75::number::Scale", ptr }
%"class.icu_75::number::Scale" = type <{ i32, [4 x i8], ptr, i32, [4 x i8] }>
%"class.icu_75::number::impl::SimpleModifier" = type { %"class.icu_75::number::impl::Modifier", %"class.icu_75::UnicodeString", %"struct.icu_75::FormattedStringBuilder::Field", i8, i32, i32, i32, %"struct.icu_75::number::impl::Modifier::Parameters" }
%"class.icu_75::MeasureUnit" = type <{ %"class.icu_75::UObject", ptr, i16, i8, [5 x i8] }>
%"class.icu_75::number::impl::IntMeasures" = type <{ %"class.icu_75::MaybeStackArray.10", i32, [4 x i8] }>
%"class.icu_75::MaybeStackArray.10" = type { ptr, i32, i8, [2 x i64] }

; Function Attrs: mustprogress nounwind uwtable
define void @_ZN6icu_756number4impl22MutablePatternModifier19setNumberPropertiesENS1_6SignumENS_14StandardPlural4FormE(ptr noundef nonnull align 8 dereferenceable(392) %this, i32 noundef %signum, i32 noundef %plural) #0 align 2 {
entry:
  %this.addr = alloca ptr, align 8
  %signum.addr = alloca i32, align 4
  %plural.addr = alloca i32, align 4
  store ptr %this, ptr %this.addr, align 8
  store i32 %signum, ptr %signum.addr, align 4
  store i32 %plural, ptr %plural.addr, align 4
  %this1 = load ptr, ptr %this.addr, align 8
  %0 = load i32, ptr %signum.addr, align 4
  %fSignum = getelementptr inbounds %"class.icu_75::number::impl::MutablePatternModifier", ptr %this1, i32 0, i32 13
  store i32 %0, ptr %fSignum, align 8
  %1 = load i32, ptr %plural.addr, align 4
  %fPlural = getelementptr inbounds %"class.icu_75::number::impl::MutablePatternModifier", ptr %this1, i32 0, i32 14
  store i32 %1, ptr %fPlural, align 4
  ret void
}

; Function Attrs: mustprogress uwtable
define noundef zeroext i1 @_ZNK6icu_756number4impl22MutablePatternModifier12needsPluralsEv(ptr noundef nonnull align 8 dereferenceable(392) %this) #1 align 2 {
entry:
  %this.addr = alloca ptr, align 8
  %statusLocal = alloca i32, align 4
  store ptr %this, ptr %this.addr, align 8
  %this1 = load ptr, ptr %this.addr, align 8
  store i32 0, ptr %statusLocal, align 4
  %fPatternInfo = getelementptr inbounds %"class.icu_75::number::impl::MutablePatternModifier", ptr %this1, i32 0, i32 4
  %0 = load ptr, ptr %fPatternInfo, align 8
  %vtable = load ptr, ptr %0, align 8
  %vfn = getelementptr inbounds ptr, ptr %vtable, i64 9
  %1 = load ptr, ptr %vfn, align 8
  %call = call noundef zeroext i1 %1(ptr noundef nonnull align 8 dereferenceable(8) %0, i32 noundef -8, ptr noundef nonnull align 4 dereferenceable(4) %statusLocal)
  ret i1 %call
}

; Function Attrs: mustprogress uwtable
define void @_ZNK6icu_756number4impl22MutablePatternModifier15processQuantityERNS1_15DecimalQuantityERNS1_10MicroPropsER10UErrorCode(ptr noundef nonnull align 8 dereferenceable(392) %this, ptr noundef nonnull align 8 dereferenceable(66) %fq, ptr noundef nonnull align 8 dereferenceable(489) %micros, ptr noundef nonnull align 4 dereferenceable(4) %status) unnamed_addr #1 align 2 {
entry:
  %this.addr = alloca ptr, align 8
  %fq.addr = alloca ptr, align 8
  %micros.addr = alloca ptr, align 8
  %status.addr = alloca ptr, align 8
  %nonConstThis = alloca ptr, align 8
  %pluralForm = alloca i32, align 4
  store ptr %this, ptr %this.addr, align 8
  store ptr %fq, ptr %fq.addr, align 8
  store ptr %micros, ptr %micros.addr, align 8
  store ptr %status, ptr %status.addr, align 8
  %this1 = load ptr, ptr %this.addr, align 8
  %fParent = getelementptr inbounds %"class.icu_75::number::impl::MutablePatternModifier", ptr %this1, i32 0, i32 15
  %0 = load ptr, ptr %fParent, align 8
  %1 = load ptr, ptr %fq.addr, align 8
  %2 = load ptr, ptr %micros.addr, align 8
  %3 = load ptr, ptr %status.addr, align 8
  %vtable = load ptr, ptr %0, align 8
  %vfn = getelementptr inbounds ptr, ptr %vtable, i64 2
  %4 = load ptr, ptr %vfn, align 8
  call void %4(ptr noundef nonnull align 8 dereferenceable(8) %0, ptr noundef nonnull align 8 dereferenceable(66) %1, ptr noundef nonnull align 8 dereferenceable(489) %2, ptr noundef nonnull align 4 dereferenceable(4) %3)
  %5 = load ptr, ptr %micros.addr, align 8
  %rounder = getelementptr inbounds %"struct.icu_75::number::impl::MicroProps", ptr %5, i32 0, i32 2
  %6 = load ptr, ptr %fq.addr, align 8
  %7 = load ptr, ptr %status.addr, align 8
  call void @_ZNK6icu_756number4impl12RoundingImpl5applyERNS1_15DecimalQuantityER10UErrorCode(ptr noundef nonnull align 8 dereferenceable(37) %rounder, ptr noundef nonnull align 8 dereferenceable(66) %6, ptr noundef nonnull align 4 dereferenceable(4) %7)
  %8 = load ptr, ptr %micros.addr, align 8
  %modMiddle = getelementptr inbounds %"struct.icu_75::number::impl::MicroProps", ptr %8, i32 0, i32 10
  %9 = load ptr, ptr %modMiddle, align 8
  %cmp = icmp ne ptr %9, null
  br i1 %cmp, label %if.then, label %if.end

if.then:                                          ; preds = %entry
  br label %return

if.end:                                           ; preds = %entry
  store ptr %this1, ptr %nonConstThis, align 8
  %call = call noundef zeroext i1 @_ZNK6icu_756number4impl22MutablePatternModifier12needsPluralsEv(ptr noundef nonnull align 8 dereferenceable(392) %this1)
  br i1 %call, label %if.then2, label %if.else

if.then2:                                         ; preds = %if.end
  %10 = load ptr, ptr %micros.addr, align 8
  %rounder3 = getelementptr inbounds %"struct.icu_75::number::impl::MicroProps", ptr %10, i32 0, i32 2
  %fRules = getelementptr inbounds %"class.icu_75::number::impl::MutablePatternModifier", ptr %this1, i32 0, i32 12
  %11 = load ptr, ptr %fRules, align 8
  %12 = load ptr, ptr %fq.addr, align 8
  %13 = load ptr, ptr %status.addr, align 8
  %call4 = call noundef i32 @_ZN6icu_756number4impl5utils13getPluralSafeERKNS1_12RoundingImplEPKNS_11PluralRulesERKNS1_15DecimalQuantityER10UErrorCode(ptr noundef nonnull align 8 dereferenceable(37) %rounder3, ptr noundef %11, ptr noundef nonnull align 8 dereferenceable(66) %12, ptr noundef nonnull align 4 dereferenceable(4) %13)
  store i32 %call4, ptr %pluralForm, align 4
  %14 = load ptr, ptr %nonConstThis, align 8
  %15 = load ptr, ptr %fq.addr, align 8
  %call5 = call noundef i32 @_ZNK6icu_756number4impl15DecimalQuantity6signumEv(ptr noundef nonnull align 8 dereferenceable(66) %15)
  %16 = load i32, ptr %pluralForm, align 4
  call void @_ZN6icu_756number4impl22MutablePatternModifier19setNumberPropertiesENS1_6SignumENS_14StandardPlural4FormE(ptr noundef nonnull align 8 dereferenceable(392) %14, i32 noundef %call5, i32 noundef %16)
  br label %if.end7

if.else:                                          ; preds = %if.end
  %17 = load ptr, ptr %nonConstThis, align 8
  %18 = load ptr, ptr %fq.addr, align 8
  %call6 = call noundef i32 @_ZNK6icu_756number4impl15DecimalQuantity6signumEv(ptr noundef nonnull align 8 dereferenceable(66) %18)
  call void @_ZN6icu_756number4impl22MutablePatternModifier19setNumberPropertiesENS1_6SignumENS_14StandardPlural4FormE(ptr noundef nonnull align 8 dereferenceable(392) %17, i32 noundef %call6, i32 noundef 8)
  br label %if.end7

if.end7:                                          ; preds = %if.else, %if.then2
  %add.ptr = getelementptr inbounds i8, ptr %this1, i64 8
  %19 = load ptr, ptr %micros.addr, align 8
  %modMiddle8 = getelementptr inbounds %"struct.icu_75::number::impl::MicroProps", ptr %19, i32 0, i32 10
  store ptr %add.ptr, ptr %modMiddle8, align 8
  br label %return

return:                                           ; preds = %if.end7, %if.then
  ret void
}