; Function Attrs: mustprogress uwtable
define void @_ZNK6icu_756number4impl22MutablePatternModifier15processQuantityERNS1_15DecimalQuantityERNS1_10MicroPropsER10UErrorCode(ptr noundef nonnull align 8 dereferenceable(392) %this, ptr noundef nonnull align 8 dereferenceable(66) %fq, ptr noundef nonnull align 8 dereferenceable(489) %micros, ptr noundef nonnull align 4 dereferenceable(4) %status) unnamed_addr #1 align 2 {
entry:
  %statusLocal.i = alloca i32, align 4
  %fParent = getelementptr inbounds i8, ptr %this, i64 320
  %0 = load ptr, ptr %fParent, align 8
  %vtable = load ptr, ptr %0, align 8
  %vfn = getelementptr inbounds i8, ptr %vtable, i64 16
  %1 = load ptr, ptr %vfn, align 8
  tail call void %1(ptr noundef nonnull align 8 dereferenceable(8) %0, ptr noundef nonnull align 8 dereferenceable(66) %fq, ptr noundef nonnull align 8 dereferenceable(489) %micros, ptr noundef nonnull align 4 dereferenceable(4) %status)
  %rounder = getelementptr inbounds i8, ptr %micros, i64 104
  tail call void @_ZNK6icu_756number4impl12RoundingImpl5applyERNS1_15DecimalQuantityER10UErrorCode(ptr noundef nonnull align 8 dereferenceable(37) %rounder, ptr noundef nonnull align 8 dereferenceable(66) %fq, ptr noundef nonnull align 4 dereferenceable(4) %status)
  %modMiddle = getelementptr inbounds i8, ptr %micros, i64 200
  %2 = load ptr, ptr %modMiddle, align 8
  %cmp.not = icmp eq ptr %2, null
  br i1 %cmp.not, label %if.end, label %return

if.end:                                           ; preds = %entry
  call void @llvm.lifetime.start.p0(i64 4, ptr nonnull %statusLocal.i)
  store i32 0, ptr %statusLocal.i, align 4
  %fPatternInfo.i = getelementptr inbounds i8, ptr %this, i64 32
  %3 = load ptr, ptr %fPatternInfo.i, align 8
  %vtable.i = load ptr, ptr %3, align 8
  %vfn.i = getelementptr inbounds i8, ptr %vtable.i, i64 72
  %4 = load ptr, ptr %vfn.i, align 8
  %call.i = call noundef zeroext i1 %4(ptr noundef nonnull align 8 dereferenceable(8) %3, i32 noundef -8, ptr noundef nonnull align 4 dereferenceable(4) %statusLocal.i)
  call void @llvm.lifetime.end.p0(i64 4, ptr nonnull %statusLocal.i)
  br i1 %call.i, label %if.then2, label %if.end7

if.then2:                                         ; preds = %if.end
  %fRules = getelementptr inbounds i8, ptr %this, i64 304
  %5 = load ptr, ptr %fRules, align 8
  %call4 = call noundef i32 @_ZN6icu_756number4impl5utils13getPluralSafeERKNS1_12RoundingImplEPKNS_11PluralRulesERKNS1_15DecimalQuantityER10UErrorCode(ptr noundef nonnull align 8 dereferenceable(37) %rounder, ptr noundef %5, ptr noundef nonnull align 8 dereferenceable(66) %fq, ptr noundef nonnull align 4 dereferenceable(4) %status)
  br label %if.end7

if.end7:                                          ; preds = %if.end, %if.then2
  %.sink = phi i32 [ %call4, %if.then2 ], [ 8, %if.end ]
  %call6 = call noundef i32 @_ZNK6icu_756number4impl15DecimalQuantity6signumEv(ptr noundef nonnull align 8 dereferenceable(66) %fq)
  %6 = getelementptr inbounds i8, ptr %this, i64 312
  store i32 %call6, ptr %6, align 8
  %7 = getelementptr inbounds i8, ptr %this, i64 316
  store i32 %.sink, ptr %7, align 4
  %add.ptr = getelementptr inbounds i8, ptr %this, i64 8
  store ptr %add.ptr, ptr %modMiddle, align 8
  br label %return

return:                                           ; preds = %entry, %if.end7
  ret void
}